; Function Attrs: mustprogress nofree nounwind null_pointer_is_valid sspstrong willreturn memory(read, inaccessiblemem: none) uwtable
define internal range(i32 0, 2) i32 @osmux_equal(ptr noundef readonly captures(none) %0, ptr noundef readonly captures(none) %1) #4 {
  %3 = getelementptr inbounds nuw i8, ptr %0, i64 48
  %4 = load i32, ptr %3, align 8
  %5 = getelementptr inbounds nuw i8, ptr %1, i64 48
  %6 = load i32, ptr %5, align 8
  %.not = icmp eq i32 %4, %6
  br i1 %.not, label %7, label %65

7:                                                ; preds = %2
  %8 = getelementptr inbounds nuw i8, ptr %0, i64 52
  %9 = load i32, ptr %8, align 4
  %10 = getelementptr inbounds nuw i8, ptr %1, i64 52
  %11 = load i32, ptr %10, align 4
  %12 = icmp eq i32 %9, %11
  br i1 %12, label %13, label %addresses_equal.exit

13:                                               ; preds = %7
  %14 = getelementptr inbounds nuw i8, ptr %0, i64 56
  %15 = load i32, ptr %14, align 8
  %16 = getelementptr inbounds nuw i8, ptr %1, i64 56
  %17 = load i32, ptr %16, align 8
  %18 = icmp eq i32 %15, %17
  br i1 %18, label %19, label %addresses_equal.exit

19:                                               ; preds = %13
  %20 = load i32, ptr %0, align 8
  %21 = load i32, ptr %1, align 8
  %22 = icmp eq i32 %20, %21
  br i1 %22, label %23, label %addresses_equal.exit

23:                                               ; preds = %19
  %24 = getelementptr inbounds nuw i8, ptr %0, i64 4
  %25 = load i32, ptr %24, align 4
  %26 = getelementptr inbounds nuw i8, ptr %1, i64 4
  %27 = load i32, ptr %26, align 4
  %28 = icmp eq i32 %25, %27
  br i1 %28, label %29, label %addresses_equal.exit

29:                                               ; preds = %23
  %30 = icmp eq i32 %25, 0
  br i1 %30, label %38, label %31

31:                                               ; preds = %29
  %32 = getelementptr inbounds nuw i8, ptr %0, i64 8
  %33 = load ptr, ptr %32, align 8
  %34 = getelementptr inbounds nuw i8, ptr %1, i64 8
  %35 = load ptr, ptr %34, align 8
  %36 = sext i32 %25 to i64
  %bcmp.i = tail call i32 @bcmp(ptr %33, ptr %35, i64 %36)
  %37 = icmp eq i32 %bcmp.i, 0
  br i1 %37, label %38, label %addresses_equal.exit

38:                                               ; preds = %31, %29
  %39 = getelementptr inbounds nuw i8, ptr %0, i64 24
  %40 = getelementptr inbounds nuw i8, ptr %1, i64 24
  %41 = load i32, ptr %39, align 8
  %42 = load i32, ptr %40, align 8
  %43 = icmp eq i32 %41, %42
  br i1 %43, label %44, label %addresses_equal.exit

44:                                               ; preds = %38
  %45 = getelementptr inbounds nuw i8, ptr %0, i64 28
  %46 = load i32, ptr %45, align 4
  %47 = getelementptr inbounds nuw i8, ptr %1, i64 28
  %48 = load i32, ptr %47, align 4
  %49 = icmp eq i32 %46, %48
  br i1 %49, label %50, label %addresses_equal.exit

50:                                               ; preds = %44
  %51 = icmp eq i32 %46, 0
  br i1 %51, label %59, label %52

52:                                               ; preds = %50
  %53 = getelementptr inbounds nuw i8, ptr %0, i64 32
  %54 = load ptr, ptr %53, align 8
  %55 = getelementptr inbounds nuw i8, ptr %1, i64 32
  %56 = load ptr, ptr %55, align 8
  %57 = sext i32 %46 to i64
  %bcmp.i15 = tail call i32 @bcmp(ptr %54, ptr %56, i64 %57)
  %58 = icmp eq i32 %bcmp.i15, 0
  br i1 %58, label %59, label %addresses_equal.exit

59:                                               ; preds = %52, %50
  %60 = getelementptr inbounds nuw i8, ptr %0, i64 60
  %61 = load i32, ptr %60, align 4
  %62 = getelementptr inbounds nuw i8, ptr %1, i64 60
  %63 = load i32, ptr %62, align 4
  %64 = icmp eq i32 %61, %63
  br i1 %64, label %65, label %addresses_equal.exit

addresses_equal.exit:                             ; preds = %52, %44, %38, %31, %23, %19, %59, %13, %7
  br label %65

65:                                               ; preds = %59, %2, %addresses_equal.exit
  %.0 = phi i32 [ 0, %addresses_equal.exit ], [ 0, %2 ], [ 1, %59 ]
  ret i32 %.0
}